; Function Attrs: null_pointer_is_valid sspstrong uwtable
define internal i32 @sm_fragment_hash(ptr noundef readonly captures(address_is_null) %0) #0 {
  %.not = icmp eq ptr %0, null
  br i1 %.not, label %12, label %2

2:                                                ; preds = %1
  %3 = load ptr, ptr %0, align 8
  %.not9 = icmp eq ptr %3, null
  br i1 %.not9, label %12, label %4

4:                                                ; preds = %2
  %5 = tail call i32 @wmem_str_hash(ptr noundef nonnull %3)
  %6 = getelementptr inbounds nuw i8, ptr %0, i64 64
  %7 = load i32, ptr %6, align 8
  %8 = xor i32 %7, %5
  %9 = getelementptr inbounds nuw i8, ptr %0, i64 8
  %10 = load i32, ptr %9, align 8
  %11 = add i32 %8, %10
  br label %12

12:                                               ; preds = %1, %2, %4
  %.0 = phi i32 [ %11, %4 ], [ 0, %2 ], [ 0, %1 ]
  ret i32 %.0
}